; Function Attrs: nounwind uwtable
define void @ff_decode_internal_sync(ptr noundef readonly captures(none) %0, ptr noundef readonly captures(none) %1) local_unnamed_addr #0 {
  %3 = getelementptr inbounds nuw i8, ptr %1, i64 40
  %4 = load ptr, ptr %3, align 8, !tbaa !4
  %5 = getelementptr inbounds nuw i8, ptr %0, i64 40
  %6 = load ptr, ptr %5, align 8, !tbaa !4
  %7 = getelementptr inbounds nuw i8, ptr %6, i64 208
  %8 = getelementptr inbounds nuw i8, ptr %4, i64 208
  %9 = load ptr, ptr %8, align 8, !tbaa !240
  tail call void @av_refstruct_replace(ptr noundef nonnull %7, ptr noundef %9) #10
  ret void
}